
zig-out/bin/kernel:     file format elf64-littleaarch64


Disassembly of section .text:

0000000040000038 <_start>:
    40000038:	5800009e 	ldr	x30, 40000048 <_start+0x10>
    4000003c:	910003df 	mov	sp, x30
    40000040:	94000404 	bl	40001050 <_stack_top>
    40000044:	14000000 	b	40000044 <_start+0xc>
    40000048:	40001050 	.word	0x40001050
    4000004c:	00000000 	.word	0x00000000

Disassembly of section .text.kernel_main:

0000000040001050 <kernel_main>:
    40001050:	52a12014 	mov	w20, #0x9000000             	// #150994944
    40001054:	52800e13 	mov	w19, #0x70                  	// #112
    40001058:	52800e55 	mov	w21, #0x72                  	// #114
    4000105c:	52800d3d 	mov	w29, #0x69                  	// #105
    40001060:	52800dd6 	mov	w22, #0x6e                  	// #110
    40001064:	52800e9b 	mov	w27, #0x74                  	// #116
    40001068:	52800cc9 	mov	w9, #0x66                  	// #102
    4000106c:	52800417 	mov	w23, #0x20                  	// #32
    40001070:	52800ca8 	mov	w8, #0x65                  	// #101
    40001074:	52800e78 	mov	w24, #0x73                  	// #115
    40001078:	5280075c 	mov	w28, #0x3a                  	// #58
    4000107c:	52800c80 	mov	w0, #0x64                  	// #100
    40001080:	39000293 	strb	w19, [x20]
    40001084:	39000295 	strb	w21, [x20]
    40001088:	3900029d 	strb	w29, [x20]
    4000108c:	39000296 	strb	w22, [x20]
    40001090:	3900029b 	strb	w27, [x20]
    40001094:	39000289 	strb	w9, [x20]
    40001098:	39000297 	strb	w23, [x20]
    4000109c:	3900029b 	strb	w27, [x20]
    400010a0:	39000288 	strb	w8, [x20]
    400010a4:	39000298 	strb	w24, [x20]
    400010a8:	3900029b 	strb	w27, [x20]
    400010ac:	39000297 	strb	w23, [x20]
    400010b0:	3900029d 	strb	w29, [x20]
    400010b4:	39000296 	strb	w22, [x20]
    400010b8:	3900029b 	strb	w27, [x20]
    400010bc:	3900029c 	strb	w28, [x20]
    400010c0:	39000297 	strb	w23, [x20]
    400010c4:	940000bf 	bl	400013c0 <serial.kprint_ui>
    400010c8:	5280015a 	mov	w26, #0xa                   	// #10
    400010cc:	52800cc8 	mov	w8, #0x66                  	// #102
    400010d0:	f0ffffe0 	adrp	x0, 40000000 <anon.fbb59c760ce7fa803edfa8b7cc230f9f.0>
    400010d4:	39000297 	strb	w23, [x20]
    400010d8:	3900029a 	strb	w26, [x20]
    400010dc:	39000293 	strb	w19, [x20]
    400010e0:	52800cf9 	mov	w25, #0x67                  	// #103
    400010e4:	39000295 	strb	w21, [x20]
    400010e8:	3900029d 	strb	w29, [x20]
    400010ec:	39000296 	strb	w22, [x20]
    400010f0:	3900029b 	strb	w27, [x20]
    400010f4:	39000288 	strb	w8, [x20]
    400010f8:	52800ca8 	mov	w8, #0x65                  	// #101
    400010fc:	91004000 	add	x0, x0, #0x10
    40001100:	39000297 	strb	w23, [x20]
    40001104:	3900029b 	strb	w27, [x20]
    40001108:	39000288 	strb	w8, [x20]
    4000110c:	39000298 	strb	w24, [x20]
    40001110:	3900029b 	strb	w27, [x20]
    40001114:	39000297 	strb	w23, [x20]
    40001118:	39000298 	strb	w24, [x20]
    4000111c:	3900029b 	strb	w27, [x20]
    40001120:	39000295 	strb	w21, [x20]
    40001124:	3900029d 	strb	w29, [x20]
    40001128:	39000296 	strb	w22, [x20]
    4000112c:	39000299 	strb	w25, [x20]
    40001130:	3900029c 	strb	w28, [x20]
    40001134:	39000297 	strb	w23, [x20]
    40001138:	940000c8 	bl	40001458 <serial.kprint>
    4000113c:	f0fffff3 	adrp	x19, 40000000 <anon.fbb59c760ce7fa803edfa8b7cc230f9f.0>
    40001140:	91008273 	add	x19, x19, #0x20
    40001144:	aa1303e0 	mov	x0, x19
    40001148:	39000297 	strb	w23, [x20]
    4000114c:	3900029a 	strb	w26, [x20]
    40001150:	940000c2 	bl	40001458 <serial.kprint>
    40001154:	52800de8 	mov	w8, #0x6f                  	// #111
    40001158:	52800cc9 	mov	w9, #0x66                  	// #102
    4000115c:	3900029b 	strb	w27, [x20]
    40001160:	39000288 	strb	w8, [x20]
    40001164:	39000288 	strb	w8, [x20]
    40001168:	52800ee8 	mov	w8, #0x77                  	// #119
    4000116c:	39000297 	strb	w23, [x20]
    40001170:	39000289 	strb	w9, [x20]
    40001174:	52800c3b 	mov	w27, #0x61                  	// #97
    40001178:	52800ca9 	mov	w9, #0x65                  	// #101
    4000117c:	aa1303e0 	mov	x0, x19
    40001180:	39000289 	strb	w9, [x20]
    40001184:	52800cbc 	mov	w28, #0x65                  	// #101
    40001188:	39000288 	strb	w8, [x20]
    4000118c:	39000297 	strb	w23, [x20]
    40001190:	3900029b 	strb	w27, [x20]
    40001194:	39000295 	strb	w21, [x20]
    40001198:	39000299 	strb	w25, [x20]
    4000119c:	39000298 	strb	w24, [x20]
    400011a0:	3900029a 	strb	w26, [x20]
    400011a4:	940000ad 	bl	40001458 <serial.kprint>
    400011a8:	90000013 	adrp	x19, 40001000 <_start+0xfc8>
    400011ac:	52800ea8 	mov	w8, #0x75                  	// #117
    400011b0:	9113c273 	add	x19, x19, #0x4f0
    400011b4:	52800142 	mov	w2, #0xa                   	// #10
    400011b8:	39000288 	strb	w8, [x20]
    400011bc:	39000296 	strb	w22, [x20]
    400011c0:	39000288 	strb	w8, [x20]
    400011c4:	52800c88 	mov	w8, #0x64                  	// #100
    400011c8:	52800081 	mov	w1, #0x4                   	// #4
    400011cc:	72a00322 	movk	w2, #0x19, lsl #16
    400011d0:	aa1303e0 	mov	x0, x19
    400011d4:	39000298 	strb	w24, [x20]
    400011d8:	3900029c 	strb	w28, [x20]
    400011dc:	39000288 	strb	w8, [x20]
    400011e0:	39000297 	strb	w23, [x20]
    400011e4:	3900029b 	strb	w27, [x20]
    400011e8:	39000295 	strb	w21, [x20]
    400011ec:	39000299 	strb	w25, [x20]
    400011f0:	39000298 	strb	w24, [x20]
    400011f4:	3900029a 	strb	w26, [x20]
    400011f8:	b900027f 	str	wzr, [x19]
    400011fc:	940000a2 	bl	40001484 <qemu_dma.qemu_cfg_dma_transfer>
    40001200:	b9400268 	ldr	w8, [x19]
    40001204:	5ac00909 	rev	w9, w8
    40001208:	b9000269 	str	w9, [x19]
    4000120c:	35000788 	cbnz	w8, 400012fc <kernel_main+0x2ac>
    40001210:	f0ffffe8 	adrp	x8, 40000000 <anon.fbb59c760ce7fa803edfa8b7cc230f9f.0>
    40001214:	3940d108 	ldrb	w8, [x8, #52]
    40001218:	370007c8 	tbnz	w8, #0, 40001310 <kernel_main+0x2c0>
    4000121c:	52a12013 	mov	w19, #0x9000000             	// #150994944
    40001220:	52800ca8 	mov	w8, #0x65                  	// #101
    40001224:	52800e49 	mov	w9, #0x72                  	// #114
    40001228:	52800dea 	mov	w10, #0x6f                  	// #111
    4000122c:	52800414 	mov	w20, #0x20                  	// #32
    40001230:	52800eeb 	mov	w11, #0x77                  	// #119
    40001234:	39000268 	strb	w8, [x19]
    40001238:	39000269 	strb	w9, [x19]
    4000123c:	39000269 	strb	w9, [x19]
    40001240:	3900026a 	strb	w10, [x19]
    40001244:	52800d0a 	mov	w10, #0x68                  	// #104
    40001248:	39000269 	strb	w9, [x19]
    4000124c:	39000274 	strb	w20, [x19]
    40001250:	3900026b 	strb	w11, [x19]
    40001254:	52800d2b 	mov	w11, #0x69                  	// #105
    40001258:	3900026a 	strb	w10, [x19]
    4000125c:	52800d8a 	mov	w10, #0x6c                  	// #108
    40001260:	3900026b 	strb	w11, [x19]
    40001264:	3900026a 	strb	w10, [x19]
    40001268:	52800e6a 	mov	w10, #0x73                  	// #115
    4000126c:	39000268 	strb	w8, [x19]
    40001270:	39000274 	strb	w20, [x19]
    40001274:	3900026a 	strb	w10, [x19]
    40001278:	52800e8a 	mov	w10, #0x74                  	// #116
    4000127c:	39000268 	strb	w8, [x19]
    40001280:	52800dc8 	mov	w8, #0x6e                  	// #110
    40001284:	3900026a 	strb	w10, [x19]
    40001288:	3900026a 	strb	w10, [x19]
    4000128c:	52800cea 	mov	w10, #0x67                  	// #103
    40001290:	3900026b 	strb	w11, [x19]
    40001294:	52800eab 	mov	w11, #0x75                  	// #117
    40001298:	39000268 	strb	w8, [x19]
    4000129c:	52800e08 	mov	w8, #0x70                  	// #112
    400012a0:	3900026a 	strb	w10, [x19]
    400012a4:	52800c2a 	mov	w10, #0x61                  	// #97
    400012a8:	39000274 	strb	w20, [x19]
    400012ac:	3900026b 	strb	w11, [x19]
    400012b0:	52800dab 	mov	w11, #0x6d                  	// #109
    400012b4:	39000268 	strb	w8, [x19]
    400012b8:	52800cc8 	mov	w8, #0x66                  	// #102
    400012bc:	39000274 	strb	w20, [x19]
    400012c0:	39000269 	strb	w9, [x19]
    400012c4:	52800c49 	mov	w9, #0x62                  	// #98
    400012c8:	3900026a 	strb	w10, [x19]
    400012cc:	5280074a 	mov	w10, #0x3a                  	// #58
    400012d0:	528000a0 	mov	w0, #0x5                   	// #5
    400012d4:	3900026b 	strb	w11, [x19]
    400012d8:	39000268 	strb	w8, [x19]
    400012dc:	39000269 	strb	w9, [x19]
    400012e0:	3900026a 	strb	w10, [x19]
    400012e4:	39000274 	strb	w20, [x19]
    400012e8:	94000036 	bl	400013c0 <serial.kprint_ui>
    400012ec:	52800148 	mov	w8, #0xa                   	// #10
    400012f0:	39000274 	strb	w20, [x19]
    400012f4:	39000268 	strb	w8, [x19]
    400012f8:	14000000 	b	400012f8 <kernel_main+0x2a8>
    400012fc:	90000000 	adrp	x0, 40001000 <_start+0xfc8>
    40001300:	9113d000 	add	x0, x0, #0x4f4
    40001304:	52800801 	mov	w1, #0x40                  	// #64
    40001308:	52800042 	mov	w2, #0x2                   	// #2
    4000130c:	9400005e 	bl	40001484 <qemu_dma.qemu_cfg_dma_transfer>
    40001310:	52a12008 	mov	w8, #0x9000000             	// #150994944
    40001314:	52800c49 	mov	w9, #0x62                  	// #98
    40001318:	52800caa 	mov	w10, #0x65                  	// #101
    4000131c:	52800ccb 	mov	w11, #0x66                  	// #102
    40001320:	52800dec 	mov	w12, #0x6f                  	// #111
    40001324:	52800e4d 	mov	w13, #0x72                  	// #114
    40001328:	5280040e 	mov	w14, #0x20                  	// #32
    4000132c:	52800daf 	mov	w15, #0x6d                  	// #109
    40001330:	39000109 	strb	w9, [x8]
    40001334:	52800c29 	mov	w9, #0x61                  	// #97
    40001338:	3900010a 	strb	w10, [x8]
    4000133c:	3900010b 	strb	w11, [x8]
    40001340:	3900010c 	strb	w12, [x8]
    40001344:	3900010d 	strb	w13, [x8]
    40001348:	3900010a 	strb	w10, [x8]
    4000134c:	3900010e 	strb	w14, [x8]
    40001350:	3900010e 	strb	w14, [x8]
    40001354:	3900010f 	strb	w15, [x8]
    40001358:	52800d8f 	mov	w15, #0x6c                  	// #108
    4000135c:	39000109 	strb	w9, [x8]
    40001360:	3900010f 	strb	w15, [x8]
    40001364:	3900010f 	strb	w15, [x8]
    40001368:	52800c6f 	mov	w15, #0x63                  	// #99
    4000136c:	3900010c 	strb	w12, [x8]
    40001370:	5280014c 	mov	w12, #0xa                   	// #10
    40001374:	3900010f 	strb	w15, [x8]
    40001378:	52800e8f 	mov	w15, #0x74                  	// #116
    4000137c:	3900010e 	strb	w14, [x8]
    40001380:	3900010c 	strb	w12, [x8]
    40001384:	39000109 	strb	w9, [x8]
    40001388:	52800d29 	mov	w9, #0x69                  	// #105
    4000138c:	3900010b 	strb	w11, [x8]
    40001390:	52800dcb 	mov	w11, #0x6e                  	// #110
    40001394:	3900010f 	strb	w15, [x8]
    40001398:	3900010a 	strb	w10, [x8]
    4000139c:	3900010d 	strb	w13, [x8]
    400013a0:	3900010e 	strb	w14, [x8]
    400013a4:	39000109 	strb	w9, [x8]
    400013a8:	3900010b 	strb	w11, [x8]
    400013ac:	39000109 	strb	w9, [x8]
    400013b0:	3900010f 	strb	w15, [x8]
    400013b4:	3900010e 	strb	w14, [x8]
    400013b8:	3900010c 	strb	w12, [x8]
    400013bc:	94000042 	bl	400014c4 <ramfb_cfg_write_workaround>

Disassembly of section .text.serial.kprint_ui:

00000000400013c0 <serial.kprint_ui>:
    400013c0:	d10083ff 	sub	sp, sp, #0x20
    400013c4:	2a1f03e8 	mov	w8, wzr
    400013c8:	910023e9 	add	x9, sp, #0x8
    400013cc:	5280014a 	mov	w10, #0xa                   	// #10
    400013d0:	1280012b 	mov	w11, #0xfffffff6            	// #-10
    400013d4:	a900ffff 	stp	xzr, xzr, [sp, #8]
    400013d8:	b9001bff 	str	wzr, [sp, #24]
    400013dc:	b4000100 	cbz	x0, 400013fc <serial.kprint_ui+0x3c>
    400013e0:	9aca080c 	udiv	x12, x0, x10
    400013e4:	1b0b018d 	madd	w13, w12, w11, w0
    400013e8:	321c05ad 	orr	w13, w13, #0x30
    400013ec:	3800152d 	strb	w13, [x9], #1
    400013f0:	11000508 	add	w8, w8, #0x1
    400013f4:	aa0c03e0 	mov	x0, x12
    400013f8:	b5ffff40 	cbnz	x0, 400013e0 <serial.kprint_ui+0x20>
    400013fc:	92401d0a 	and	x10, x8, #0xff
    40001400:	aa1f03e9 	mov	x9, xzr
    40001404:	d100054a 	sub	x10, x10, #0x1
    40001408:	910023eb 	add	x11, sp, #0x8
    4000140c:	eb09015f 	cmp	x10, x9
    40001410:	54000109 	b.ls	40001430 <serial.kprint_ui+0x70>  // b.plast
    40001414:	386a696c 	ldrb	w12, [x11, x10]
    40001418:	3869696d 	ldrb	w13, [x11, x9]
    4000141c:	3829696c 	strb	w12, [x11, x9]
    40001420:	382a696d 	strb	w13, [x11, x10]
    40001424:	91000529 	add	x9, x9, #0x1
    40001428:	d100054a 	sub	x10, x10, #0x1
    4000142c:	17fffff8 	b	4000140c <serial.kprint_ui+0x4c>
    40001430:	910023e9 	add	x9, sp, #0x8
    40001434:	92401d08 	and	x8, x8, #0xff
    40001438:	52a1200a 	mov	w10, #0x9000000             	// #150994944
    4000143c:	b40000a8 	cbz	x8, 40001450 <serial.kprint_ui+0x90>
    40001440:	3840152b 	ldrb	w11, [x9], #1
    40001444:	d1000508 	sub	x8, x8, #0x1
    40001448:	3900014b 	strb	w11, [x10]
    4000144c:	b5ffffa8 	cbnz	x8, 40001440 <serial.kprint_ui+0x80>
    40001450:	910083ff 	add	sp, sp, #0x20
    40001454:	d65f03c0 	ret

Disassembly of section .text.serial.kprint:

0000000040001458 <serial.kprint>:
    40001458:	f9400409 	ldr	x9, [x0, #8]
    4000145c:	aa1f03e8 	mov	x8, xzr
    40001460:	52a1200a 	mov	w10, #0x9000000             	// #150994944
    40001464:	eb08013f 	cmp	x9, x8
    40001468:	540000c0 	b.eq	40001480 <serial.kprint+0x28>  // b.none
    4000146c:	f940000b 	ldr	x11, [x0]
    40001470:	3868696b 	ldrb	w11, [x11, x8]
    40001474:	91000508 	add	x8, x8, #0x1
    40001478:	3900014b 	strb	w11, [x10]
    4000147c:	17fffffa 	b	40001464 <serial.kprint+0xc>
    40001480:	d65f03c0 	ret

Disassembly of section .text.qemu_dma.qemu_cfg_dma_transfer:

0000000040001484 <qemu_dma.qemu_cfg_dma_transfer>:
    40001484:	90000009 	adrp	x9, 40001000 <_start+0xfc8>
    40001488:	5ac00848 	rev	w8, w2
    4000148c:	91138129 	add	x9, x9, #0x4e0
    40001490:	5ac0082a 	rev	w10, w1
    40001494:	5280020c 	mov	w12, #0x10                  	// #16
    40001498:	dac00c0b 	rev	x11, x0
    4000149c:	72a1204c 	movk	w12, #0x902, lsl #16
    400014a0:	29002928 	stp	w8, w10, [x9]
    400014a4:	dac00d28 	rev	x8, x9
    400014a8:	f900052b 	str	x11, [x9, #8]
    400014ac:	f9000188 	str	x8, [x12]
    400014b0:	90000008 	adrp	x8, 40001000 <_start+0xfc8>
    400014b4:	b944e109 	ldr	w9, [x8, #1248]
    400014b8:	53197d29 	lsr	w9, w9, #25
    400014bc:	35ffffc9 	cbnz	w9, 400014b4 <qemu_dma.qemu_cfg_dma_transfer+0x30>
    400014c0:	d65f03c0 	ret

Disassembly of section .text.ramfb_cfg_write_workaround:

00000000400014c4 <ramfb_cfg_write_workaround>:
    400014c4:	d10043ff 	sub	sp, sp, #0x10
    400014c8:	910003e8 	mov	x8, sp
    400014cc:	52801009 	mov	w9, #0x80                  	// #128
    400014d0:	5ac00908 	rev	w8, w8
    400014d4:	72a12049 	movk	w9, #0x902, lsl #16
    400014d8:	f9000128 	str	x8, [x9]
    400014dc:	14000000 	b	400014dc <ramfb_cfg_write_workaround+0x18>
